Certificate:
    Data:
        Version: 3 (0x2)
        Serial Number:
            3f:54:27:60:47:aa:7a:b6:4e:5c:82:6f:d8:55:73:b1:50:9b:9b:cc
        Signature Algorithm: sha256WithRSAEncryption
        Issuer: CN = PostgresRootCA
        Validity
            Not Before: Sep 15 13:49:26 2025 GMT
            Not After : Sep 15 13:49:26 2026 GMT
        Subject: CN = PostgresRootCA
        Subject Public Key Info:
            Public Key Algorithm: rsaEncryption
                Public-Key: (2048 bit)
                Modulus:
                    00:d0:90:b1:24:87:1d:0e:2b:ae:f3:2e:9e:4e:8e:
                    e1:0f:5b:f8:18:79:a8:d6:89:ea:ae:be:57:69:8a:
                    1a:f3:e2:4b:a4:e0:d3:b7:66:84:bb:3c:f3:bf:27:
                    3f:e7:a0:ac:3e:2e:2e:90:e7:d0:93:91:43:3d:34:
                    5c:6a:ac:4f:0e:a4:c8:a3:58:7b:09:9c:cc:e0:e4:
                    98:47:cf:17:b0:0a:cb:1d:17:8b:80:3e:2e:61:90:
                    e3:98:70:79:2d:84:56:be:59:3e:31:d9:56:31:17:
                    ec:7a:81:18:1f:9e:74:9a:e0:db:ae:dc:cc:9d:5c:
                    da:93:d7:b8:99:5d:cc:38:3c:5b:2a:ba:e4:2c:7b:
                    f7:e9:51:c9:a1:09:40:a2:da:4b:bc:52:bc:27:82:
                    7b:4b:5a:76:41:03:5e:47:39:a6:b8:f7:46:ca:6e:
                    b1:80:31:89:d6:1d:64:a6:86:b1:4a:be:f8:20:54:
                    cb:f6:ac:01:73:ed:21:54:43:4a:a9:f8:cf:58:2f:
                    38:2f:32:77:a3:61:04:01:e5:9d:93:ba:72:c6:5d:
                    c8:1d:8b:87:a2:96:04:ae:a2:83:46:14:2e:ac:f5:
                    c3:9d:8b:14:81:91:e4:fb:1f:33:64:28:f0:0c:e7:
                    7d:87:4b:ef:45:0f:16:60:7e:a1:61:fa:09:8e:85:
                    73:29
                Exponent: 65537 (0x10001)
        X509v3 extensions:
            X509v3 Subject Key Identifier: 
                E4:DD:6A:8D:8C:47:CB:A1:DA:FD:25:99:49:C1:8A:4F:19:3C:14:C1
            X509v3 Authority Key Identifier: 
                E4:DD:6A:8D:8C:47:CB:A1:DA:FD:25:99:49:C1:8A:4F:19:3C:14:C1
            X509v3 Basic Constraints: critical
                CA:TRUE
    Signature Algorithm: sha256WithRSAEncryption
    Signature Value:
        20:61:5c:0e:76:66:c1:f0:31:cd:78:4f:e2:68:85:cc:3c:bd:
        9b:19:44:ed:42:e3:6a:2d:02:94:15:f4:2a:35:73:7a:c6:0c:
        af:f4:a4:02:66:bc:3e:9a:4e:24:06:cd:cb:5b:74:07:20:d7:
        84:8c:86:18:f9:1f:13:f5:ab:da:ed:8d:49:33:c0:46:83:be:
        c7:6b:7d:84:ab:6b:74:99:02:15:2d:45:3e:a1:ec:1a:1c:9a:
        97:e6:a7:e9:39:66:ee:50:af:01:44:8e:6d:5c:d3:8b:22:f5:
        95:5a:41:67:0a:b3:ca:3d:35:a3:51:42:d3:9c:00:8f:d3:09:
        91:86:76:50:50:06:61:3c:ee:cf:9f:8a:b7:6c:38:97:2b:a5:
        bb:45:ab:7a:e9:35:6a:5a:77:81:6d:e4:64:f6:df:19:9e:43:
        f8:28:20:39:66:50:f5:4b:1c:31:fb:80:5f:e0:d8:8a:c8:63:
        b5:1c:a2:c1:04:60:8d:5e:4c:99:dd:7a:bd:ed:e1:af:88:43:
        5c:d6:3e:e0:73:02:eb:2d:0e:7d:a1:16:10:1b:ba:af:d2:53:
        fb:6f:c3:07:b1:81:94:1d:4b:0d:76:98:42:f0:db:6d:4d:d0:
        e2:6b:d9:b9:32:cc:ce:7d:72:c4:b8:ea:21:55:d6:83:23:f0:
        6e:df:f6:9c
-----BEGIN CERTIFICATE-----
MIIDEzCCAfugAwIBAgIUP1QnYEeqerZOXIJv2FVzsVCbm8wwDQYJKoZIhvcNAQEL
BQAwGTEXMBUGA1UEAwwOUG9zdGdyZXNSb290Q0EwHhcNMjUwOTE1MTM0OTI2WhcN
MjYwOTE1MTM0OTI2WjAZMRcwFQYDVQQDDA5Qb3N0Z3Jlc1Jvb3RDQTCCASIwDQYJ
KoZIhvcNAQEBBQADggEPADCCAQoCggEBANCQsSSHHQ4rrvMunk6O4Q9b+Bh5qNaJ
6q6+V2mKGvPiS6Tg07dmhLs8878nP+egrD4uLpDn0JORQz00XGqsTw6kyKNYewmc
zODkmEfPF7AKyx0Xi4A+LmGQ45hweS2EVr5ZPjHZVjEX7HqBGB+edJrg267czJ1c
2pPXuJldzDg8Wyq65Cx79+lRyaEJQKLaS7xSvCeCe0tadkEDXkc5prj3RspusYAx
idYdZKaGsUq++CBUy/asAXPtIVRDSqn4z1gvOC8yd6NhBAHlnZO6csZdyB2Lh6KW
BK6ig0YULqz1w52LFIGR5PsfM2Qo8AznfYdL70UPFmB+oWH6CY6FcykCAwEAAaNT
MFEwHQYDVR0OBBYEFOTdao2MR8uh2v0lmUnBik8ZPBTBMB8GA1UdIwQYMBaAFOTd
ao2MR8uh2v0lmUnBik8ZPBTBMA8GA1UdEwEB/wQFMAMBAf8wDQYJKoZIhvcNAQEL
BQADggEBACBhXA52ZsHwMc14T+Johcw8vZsZRO1C42otApQV9Co1c3rGDK/0pAJm
vD6aTiQGzctbdAcg14SMhhj5HxP1q9rtjUkzwEaDvsdrfYSra3SZAhUtRT6h7Boc
mpfmp+k5Zu5QrwFEjm1c04si9ZVaQWcKs8o9NaNRQtOcAI/TCZGGdlBQBmE87s+f
irdsOJcrpbtFq3rpNWpad4Ft5GT23xmeQ/goIDlmUPVLHDH7gF/g2IrIY7UcosEE
YI1eTJnder3t4a+IQ1zWPuBzAustDn2hFhAbuq/SU/tvwwexgZQdSw12mELw221N
0OJr2bkyzM59csS46iFV1oMj8G7f9pw=
-----END CERTIFICATE-----
