Certificate:
    Data:
        Version: 3 (0x2)
        Serial Number:
            4f:18:47:76:c4:10:80:92:4c:d5:a4:5d:bb:ef:67:d1:39:cb:37:9d
        Signature Algorithm: sha256WithRSAEncryption
        Issuer: CN = MySQLRootCA
        Validity
            Not Before: Sep 16 09:27:36 2025 GMT
            Not After : Sep 16 09:27:36 2026 GMT
        Subject: CN = mysql
        Subject Public Key Info:
            Public Key Algorithm: rsaEncryption
                Public-Key: (2048 bit)
                Modulus:
                    00:b9:10:90:96:58:b6:30:ea:85:d7:ff:ff:29:ac:
                    5a:51:05:55:fa:ef:8b:4f:f6:43:b0:77:1d:75:a5:
                    63:51:c1:a4:a7:af:a5:8d:a9:a8:66:be:e2:61:1b:
                    76:95:03:ab:db:e3:ed:4c:b6:73:17:e6:a1:f3:a1:
                    23:d2:f2:e5:e0:cb:09:44:52:43:86:23:49:cb:57:
                    59:08:19:e7:d3:12:c0:45:33:bd:b2:97:25:18:19:
                    c4:5e:fb:54:8f:6d:ee:b1:28:53:14:06:ad:cb:30:
                    53:0d:a2:9d:4d:0b:25:57:5f:4e:62:6c:4e:f3:e1:
                    cb:fe:c6:1e:50:bc:92:49:50:67:cd:84:4b:02:4a:
                    c9:17:2d:77:53:e4:21:d0:ba:a4:31:62:68:1f:45:
                    18:68:00:6e:31:ab:9d:49:97:23:a8:aa:df:c4:07:
                    b0:ef:95:3b:9b:2f:89:62:99:58:de:da:cd:3d:57:
                    6f:4e:46:5e:83:8f:20:b8:db:af:cd:f6:0a:bc:e5:
                    cd:f2:c8:e9:65:fc:3b:46:4d:bc:73:f0:3c:9c:69:
                    c7:04:58:c9:70:cc:a5:f3:af:e4:d2:04:ce:45:e5:
                    cd:5a:06:67:cf:c2:ab:36:00:fc:52:2a:2e:77:a2:
                    e0:3c:5d:87:50:6f:97:be:9d:59:49:b1:ec:05:8f:
                    b5:73
                Exponent: 65537 (0x10001)
        X509v3 extensions:
            X509v3 Subject Alternative Name: 
                DNS:localhost, IP Address:127.0.0.1
            X509v3 Subject Key Identifier: 
                12:2E:99:21:57:88:4A:07:DB:D1:A0:51:0D:27:62:6F:74:C1:36:83
            X509v3 Authority Key Identifier: 
                80:3D:F6:2D:67:FD:D6:3D:E0:A1:4B:A5:E6:C3:5C:04:54:F1:E4:D8
    Signature Algorithm: sha256WithRSAEncryption
    Signature Value:
        11:4f:ee:95:e8:07:85:3b:51:45:14:8d:b0:04:07:42:80:35:
        89:dd:4e:79:4a:97:8d:37:1f:51:95:74:5e:55:3a:1b:80:91:
        9d:91:91:bf:58:78:5a:a7:cb:56:ea:e8:40:e5:a5:43:88:9a:
        82:71:82:e2:ce:eb:bd:39:93:13:10:d6:07:dc:05:20:93:84:
        b9:33:71:99:02:9e:4a:17:ea:1c:3f:10:f7:fd:53:87:c3:eb:
        f7:80:2d:34:c9:dc:4f:2d:41:59:de:c9:1d:e1:fd:f9:46:55:
        ec:73:6a:ff:e8:d3:6d:e1:4d:3a:dd:c7:1a:11:5d:f3:e8:39:
        a5:bf:94:18:f6:8c:e5:c8:f6:8f:31:e4:c3:b6:b2:6c:1d:4e:
        de:22:ea:c1:84:ee:fd:02:b7:6b:0a:ec:2d:96:66:04:41:95:
        92:d5:b7:87:1a:42:ae:83:a8:79:00:96:60:9a:11:2c:50:cd:
        5d:de:94:35:88:f0:d9:0e:97:d4:f2:5d:57:3e:cb:1f:76:2a:
        28:d8:b7:31:bc:2d:fa:58:4a:df:99:8c:2b:58:81:53:49:03:
        94:91:3d:d8:e1:be:c1:a6:79:4f:cf:54:6b:57:c3:4f:fe:37:
        9d:51:fe:62:0a:e6:e8:c9:fe:cf:6d:69:40:20:6b:40:a9:5b:
        41:8c:15:4b
-----BEGIN CERTIFICATE-----
MIIDEjCCAfqgAwIBAgIUTxhHdsQQgJJM1aRdu+9n0TnLN50wDQYJKoZIhvcNAQEL
BQAwFjEUMBIGA1UEAwwLTXlTUUxSb290Q0EwHhcNMjUwOTE2MDkyNzM2WhcNMjYw
OTE2MDkyNzM2WjAQMQ4wDAYDVQQDDAVteXNxbDCCASIwDQYJKoZIhvcNAQEBBQAD
ggEPADCCAQoCggEBALkQkJZYtjDqhdf//ymsWlEFVfrvi0/2Q7B3HXWlY1HBpKev
pY2pqGa+4mEbdpUDq9vj7Uy2cxfmofOhI9Ly5eDLCURSQ4YjSctXWQgZ59MSwEUz
vbKXJRgZxF77VI9t7rEoUxQGrcswUw2inU0LJVdfTmJsTvPhy/7GHlC8kklQZ82E
SwJKyRctd1PkIdC6pDFiaB9FGGgAbjGrnUmXI6iq38QHsO+VO5sviWKZWN7azT1X
b05GXoOPILjbr832CrzlzfLI6WX8O0ZNvHPwPJxpxwRYyXDMpfOv5NIEzkXlzVoG
Z8/CqzYA/FIqLnei4Dxdh1Bvl76dWUmx7AWPtXMCAwEAAaNeMFwwGgYDVR0RBBMw
EYIJbG9jYWxob3N0hwR/AAABMB0GA1UdDgQWBBQSLpkhV4hKB9vRoFENJ2JvdME2
gzAfBgNVHSMEGDAWgBSAPfYtZ/3WPeChS6Xmw1wEVPHk2DANBgkqhkiG9w0BAQsF
AAOCAQEAEU/ulegHhTtRRRSNsAQHQoA1id1OeUqXjTcfUZV0XlU6G4CRnZGRv1h4
WqfLVuroQOWlQ4iagnGC4s7rvTmTExDWB9wFIJOEuTNxmQKeShfqHD8Q9/1Th8Pr
94AtNMncTy1BWd7JHeH9+UZV7HNq/+jTbeFNOt3HGhFd8+g5pb+UGPaM5cj2jzHk
w7aybB1O3iLqwYTu/QK3awrsLZZmBEGVktW3hxpCroOoeQCWYJoRLFDNXd6UNYjw
2Q6X1PJdVz7LH3YqKNi3Mbwt+lhK35mMK1iBU0kDlJE92OG+waZ5T89Ua1fDT/43
nVH+Ygrm6Mn+z21pQCBrQKlbQYwVSw==
-----END CERTIFICATE-----
